target datalayout = "e-m:e-p270:32:32-p271:32:32-p272:64:64-i64:64-i128:128-f80:128-n8:16:32:64-S128"
target triple = "x86_64-pc-linux-gnu"

%"class.ncnn::Mat" = type { ptr, ptr, i64, i32, ptr, i32, i32, i32, i32, i32, i64 }

@stderr = external global ptr, align 8
@.str = private unnamed_addr constant [24 x i8] c"unknown convert type %d\00", align 1
@.str.1 = private unnamed_addr constant [2 x i8] c"\0A\00", align 1
@.str.3 = private unnamed_addr constant [35 x i8] c"roi %d %d %d %d out of image %d %d\00", align 1

; Function Attrs: alwaysinline mustprogress nounwind uwtable
define linkonce_odr hidden void @_ZN4ncnn3MatC2Ev(ptr noundef nonnull align 8 dereferenceable(72) %0) unnamed_addr #5 comdat align 2 {
  %2 = alloca ptr, align 8
  store ptr %0, ptr %2, align 8, !tbaa !25
  %3 = load ptr, ptr %2, align 8
  %4 = getelementptr inbounds nuw %"class.ncnn::Mat", ptr %3, i32 0, i32 0
  store ptr null, ptr %4, align 8, !tbaa !27
  %5 = getelementptr inbounds nuw %"class.ncnn::Mat", ptr %3, i32 0, i32 1
  store ptr null, ptr %5, align 8, !tbaa !30
  %6 = getelementptr inbounds nuw %"class.ncnn::Mat", ptr %3, i32 0, i32 2
  store i64 0, ptr %6, align 8, !tbaa !31
  %7 = getelementptr inbounds nuw %"class.ncnn::Mat", ptr %3, i32 0, i32 3
  store i32 0, ptr %7, align 8, !tbaa !32
  %8 = getelementptr inbounds nuw %"class.ncnn::Mat", ptr %3, i32 0, i32 4
  store ptr null, ptr %8, align 8, !tbaa !33
  %9 = getelementptr inbounds nuw %"class.ncnn::Mat", ptr %3, i32 0, i32 5
  store i32 0, ptr %9, align 8, !tbaa !34
  %10 = getelementptr inbounds nuw %"class.ncnn::Mat", ptr %3, i32 0, i32 6
  store i32 0, ptr %10, align 4, !tbaa !35
  %11 = getelementptr inbounds nuw %"class.ncnn::Mat", ptr %3, i32 0, i32 7
  store i32 0, ptr %11, align 8, !tbaa !36
  %12 = getelementptr inbounds nuw %"class.ncnn::Mat", ptr %3, i32 0, i32 8
  store i32 0, ptr %12, align 4, !tbaa !37
  %13 = getelementptr inbounds nuw %"class.ncnn::Mat", ptr %3, i32 0, i32 9
  store i32 0, ptr %13, align 8, !tbaa !38
  %14 = getelementptr inbounds nuw %"class.ncnn::Mat", ptr %3, i32 0, i32 10
  store i64 0, ptr %14, align 8, !tbaa !39
  ret void
}

; Function Attrs: mustprogress uwtable
define hidden void @_ZN4ncnn3Mat15from_pixels_roiEPKhiiiiiiiiPNS_9AllocatorE(ptr dead_on_unwind noalias writable sret(%"class.ncnn::Mat") align 8 %0, ptr noundef %1, i32 noundef %2, i32 noundef %3, i32 noundef %4, i32 noundef %5, i32 noundef %6, i32 noundef %7, i32 noundef %8, i32 noundef %9, ptr noundef %10) #0 align 2 {
  %12 = alloca ptr, align 8
  %13 = alloca ptr, align 8
  %14 = alloca i32, align 4
  %15 = alloca i32, align 4
  %16 = alloca i32, align 4
  %17 = alloca i32, align 4
  %18 = alloca i32, align 4
  %19 = alloca i32, align 4
  %20 = alloca i32, align 4
  %21 = alloca i32, align 4
  %22 = alloca ptr, align 8
  %23 = alloca i32, align 4
  %24 = alloca i32, align 4
  store ptr %0, ptr %12, align 8
  store ptr %1, ptr %13, align 8, !tbaa !4
  store i32 %2, ptr %14, align 4, !tbaa !9
  store i32 %3, ptr %15, align 4, !tbaa !9
  store i32 %4, ptr %16, align 4, !tbaa !9
  store i32 %5, ptr %17, align 4, !tbaa !9
  store i32 %6, ptr %18, align 4, !tbaa !9
  store i32 %7, ptr %19, align 4, !tbaa !9
  store i32 %8, ptr %20, align 4, !tbaa !9
  store i32 %9, ptr %21, align 4, !tbaa !9
  store ptr %10, ptr %22, align 8, !tbaa !21
  %25 = load i32, ptr %18, align 4, !tbaa !9
  %26 = icmp slt i32 %25, 0
  br i1 %26, label %48, label %27

27:                                               ; preds = %11
  %28 = load i32, ptr %19, align 4, !tbaa !9
  %29 = icmp slt i32 %28, 0
  br i1 %29, label %48, label %30

30:                                               ; preds = %27
  %31 = load i32, ptr %20, align 4, !tbaa !9
  %32 = icmp sle i32 %31, 0
  br i1 %32, label %48, label %33

33:                                               ; preds = %30
  %34 = load i32, ptr %21, align 4, !tbaa !9
  %35 = icmp sle i32 %34, 0
  br i1 %35, label %48, label %36

36:                                               ; preds = %33
  %37 = load i32, ptr %18, align 4, !tbaa !9
  %38 = load i32, ptr %20, align 4, !tbaa !9
  %39 = add nsw i32 %37, %38
  %40 = load i32, ptr %15, align 4, !tbaa !9
  %41 = icmp sgt i32 %39, %40
  br i1 %41, label %48, label %42

42:                                               ; preds = %36
  %43 = load i32, ptr %19, align 4, !tbaa !9
  %44 = load i32, ptr %21, align 4, !tbaa !9
  %45 = add nsw i32 %43, %44
  %46 = load i32, ptr %16, align 4, !tbaa !9
  %47 = icmp sgt i32 %45, %46
  br i1 %47, label %48, label %61

48:                                               ; preds = %42, %36, %33, %30, %27, %11
  br label %49

49:                                               ; preds = %48
  %50 = load ptr, ptr @stderr, align 8, !tbaa !23
  %51 = load i32, ptr %18, align 4, !tbaa !9
  %52 = load i32, ptr %19, align 4, !tbaa !9
  %53 = load i32, ptr %20, align 4, !tbaa !9
  %54 = load i32, ptr %21, align 4, !tbaa !9
  %55 = load i32, ptr %15, align 4, !tbaa !9
  %56 = load i32, ptr %16, align 4, !tbaa !9
  %57 = call i32 (ptr, ptr, ...) @fprintf(ptr noundef %50, ptr noundef @.str.3, i32 noundef %51, i32 noundef %52, i32 noundef %53, i32 noundef %54, i32 noundef %55, i32 noundef %56) #9
  %58 = load ptr, ptr @stderr, align 8, !tbaa !23
  %59 = call i32 (ptr, ptr, ...) @fprintf(ptr noundef %58, ptr noundef @.str.1) #9
  br label %60

60:                                               ; preds = %49
  call void @_ZN4ncnn3MatC2Ev(ptr noundef nonnull align 8 dereferenceable(72) %0)
  br label %138

61:                                               ; preds = %42
  call void @llvm.lifetime.start.p0(i64 4, ptr %23) #9
  %62 = load i32, ptr %14, align 4, !tbaa !9
  %63 = and i32 %62, 65535
  store i32 %63, ptr %23, align 4, !tbaa !9
  %64 = load i32, ptr %23, align 4, !tbaa !9
  %65 = icmp eq i32 %64, 1
  br i1 %65, label %69, label %66

66:                                               ; preds = %61
  %67 = load i32, ptr %23, align 4, !tbaa !9
  %68 = icmp eq i32 %67, 2
  br i1 %68, label %69, label %85

69:                                               ; preds = %66, %61
  %70 = load ptr, ptr %13, align 8, !tbaa !4
  %71 = load i32, ptr %19, align 4, !tbaa !9
  %72 = load i32, ptr %17, align 4, !tbaa !9
  %73 = mul nsw i32 %71, %72
  %74 = sext i32 %73 to i64
  %75 = getelementptr inbounds i8, ptr %70, i64 %74
  %76 = load i32, ptr %18, align 4, !tbaa !9
  %77 = mul nsw i32 %76, 3
  %78 = sext i32 %77 to i64
  %79 = getelementptr inbounds i8, ptr %75, i64 %78
  %80 = load i32, ptr %14, align 4, !tbaa !9
  %81 = load i32, ptr %20, align 4, !tbaa !9
  %82 = load i32, ptr %21, align 4, !tbaa !9
  %83 = load i32, ptr %17, align 4, !tbaa !9
  %84 = load ptr, ptr %22, align 8, !tbaa !21
  call void @_ZN4ncnn3Mat11from_pixelsEPKhiiiiPNS_9AllocatorE(ptr dead_on_unwind writable sret(%"class.ncnn::Mat") align 8 %0, ptr noundef %79, i32 noundef %80, i32 noundef %81, i32 noundef %82, i32 noundef %83, ptr noundef %84)
  store i32 1, ptr %24, align 4
  br label %137

85:                                               ; preds = %66
  %86 = load i32, ptr %23, align 4, !tbaa !9
  %87 = icmp eq i32 %86, 3
  br i1 %87, label %88, label %104

88:                                               ; preds = %85
  %89 = load ptr, ptr %13, align 8, !tbaa !4
  %90 = load i32, ptr %19, align 4, !tbaa !9
  %91 = load i32, ptr %17, align 4, !tbaa !9
  %92 = mul nsw i32 %90, %91
  %93 = sext i32 %92 to i64
  %94 = getelementptr inbounds i8, ptr %89, i64 %93
  %95 = load i32, ptr %18, align 4, !tbaa !9
  %96 = mul nsw i32 %95, 1
  %97 = sext i32 %96 to i64
  %98 = getelementptr inbounds i8, ptr %94, i64 %97
  %99 = load i32, ptr %14, align 4, !tbaa !9
  %100 = load i32, ptr %20, align 4, !tbaa !9
  %101 = load i32, ptr %21, align 4, !tbaa !9
  %102 = load i32, ptr %17, align 4, !tbaa !9
  %103 = load ptr, ptr %22, align 8, !tbaa !21
  call void @_ZN4ncnn3Mat11from_pixelsEPKhiiiiPNS_9AllocatorE(ptr dead_on_unwind writable sret(%"class.ncnn::Mat") align 8 %0, ptr noundef %98, i32 noundef %99, i32 noundef %100, i32 noundef %101, i32 noundef %102, ptr noundef %103)
  store i32 1, ptr %24, align 4
  br label %137

104:                                              ; preds = %85
  %105 = load i32, ptr %23, align 4, !tbaa !9
  %106 = icmp eq i32 %105, 4
  br i1 %106, label %110, label %107

107:                                              ; preds = %104
  %108 = load i32, ptr %23, align 4, !tbaa !9
  %109 = icmp eq i32 %108, 5
  br i1 %109, label %110, label %126

110:                                              ; preds = %107, %104
  %111 = load ptr, ptr %13, align 8, !tbaa !4
  %112 = load i32, ptr %19, align 4, !tbaa !9
  %113 = load i32, ptr %17, align 4, !tbaa !9
  %114 = mul nsw i32 %112, %113
  %115 = sext i32 %114 to i64
  %116 = getelementptr inbounds i8, ptr %111, i64 %115
  %117 = load i32, ptr %18, align 4, !tbaa !9
  %118 = mul nsw i32 %117, 4
  %119 = sext i32 %118 to i64
  %120 = getelementptr inbounds i8, ptr %116, i64 %119
  %121 = load i32, ptr %14, align 4, !tbaa !9
  %122 = load i32, ptr %20, align 4, !tbaa !9
  %123 = load i32, ptr %21, align 4, !tbaa !9
  %124 = load i32, ptr %17, align 4, !tbaa !9
  %125 = load ptr, ptr %22, align 8, !tbaa !21
  call void @_ZN4ncnn3Mat11from_pixelsEPKhiiiiPNS_9AllocatorE(ptr dead_on_unwind writable sret(%"class.ncnn::Mat") align 8 %0, ptr noundef %120, i32 noundef %121, i32 noundef %122, i32 noundef %123, i32 noundef %124, ptr noundef %125)
  store i32 1, ptr %24, align 4
  br label %137

126:                                              ; preds = %107
  br label %127

127:                                              ; preds = %126
  br label %128

128:                                              ; preds = %127
  br label %129

129:                                              ; preds = %128
  %130 = load ptr, ptr @stderr, align 8, !tbaa !23
  %131 = load i32, ptr %14, align 4, !tbaa !9
  %132 = call i32 (ptr, ptr, ...) @fprintf(ptr noundef %130, ptr noundef @.str, i32 noundef %131) #9
  %133 = load ptr, ptr @stderr, align 8, !tbaa !23
  %134 = call i32 (ptr, ptr, ...) @fprintf(ptr noundef %133, ptr noundef @.str.1) #9
  br label %135

135:                                              ; preds = %129
  br label %136

136:                                              ; preds = %135
  call void @_ZN4ncnn3MatC2Ev(ptr noundef nonnull align 8 dereferenceable(72) %0)
  store i32 1, ptr %24, align 4
  br label %137

137:                                              ; preds = %136, %110, %88, %69
  call void @llvm.lifetime.end.p0(i64 4, ptr %23) #9
  br label %138

138:                                              ; preds = %137, %60
  ret void
}