; Function Attrs: mustprogress uwtable
define hidden void @_ZN4ncnn3Mat15from_pixels_roiEPKhiiiiiiiiPNS_9AllocatorE(ptr dead_on_unwind noalias writable sret(%"class.ncnn::Mat") align 8 initializes((0, 28), (32, 60), (64, 72)) %0, ptr noundef %1, i32 noundef %2, i32 noundef %3, i32 noundef %4, i32 noundef %5, i32 noundef %6, i32 noundef %7, i32 noundef %8, i32 noundef %9, ptr noundef %10) local_unnamed_addr #2 align 2 {
  %12 = or i32 %7, %6
  %or.cond = icmp slt i32 %12, 0
  %13 = icmp slt i32 %8, 1
  %or.cond3 = or i1 %or.cond, %13
  %14 = icmp slt i32 %9, 1
  %or.cond5 = or i1 %or.cond3, %14
  %15 = add nuw nsw i32 %8, %6
  %16 = icmp sgt i32 %15, %3
  %or.cond64 = select i1 %or.cond5, i1 true, i1 %16
  %17 = add nuw nsw i32 %9, %7
  %18 = icmp sgt i32 %17, %4
  %or.cond66 = select i1 %or.cond64, i1 true, i1 %18
  br i1 %or.cond66, label %19, label %25

19:                                               ; preds = %11
  %20 = load ptr, ptr @stderr, align 8, !tbaa !14
  %21 = tail call i32 (ptr, ptr, ...) @fprintf(ptr noundef %20, ptr noundef nonnull @.str.3, i32 noundef %6, i32 noundef %7, i32 noundef %8, i32 noundef %9, i32 noundef %3, i32 noundef %4) #13
  %22 = load ptr, ptr @stderr, align 8, !tbaa !14
  %fputc62 = tail call i32 @fputc(i32 10, ptr %22)
  %23 = getelementptr inbounds nuw i8, ptr %0, i64 32
  %24 = getelementptr inbounds nuw i8, ptr %0, i64 64
  store i64 0, ptr %24, align 8, !tbaa !17
  tail call void @llvm.memset.p0.i64(ptr noundef nonnull align 8 dereferenceable(28) %0, i8 0, i64 28, i1 false)
  tail call void @llvm.memset.p0.i64(ptr noundef nonnull align 8 dereferenceable(28) %23, i8 0, i64 28, i1 false)
  br label %58

25:                                               ; preds = %11
  %26 = and i32 %2, 65535
  %27 = add nsw i32 %26, -1
  %or.cond7 = icmp ult i32 %27, 2
  br i1 %or.cond7, label %28, label %35

28:                                               ; preds = %25
  %29 = mul nsw i32 %7, %5
  %30 = sext i32 %29 to i64
  %31 = getelementptr inbounds i8, ptr %1, i64 %30
  %32 = mul nsw i32 %6, 3
  %33 = zext nneg i32 %32 to i64
  %34 = getelementptr inbounds nuw i8, ptr %31, i64 %33
  tail call void @_ZN4ncnn3Mat11from_pixelsEPKhiiiiPNS_9AllocatorE(ptr dead_on_unwind writable sret(%"class.ncnn::Mat") align 8 %0, ptr noundef %34, i32 noundef %2, i32 noundef %8, i32 noundef %9, i32 noundef %5, ptr noundef %10)
  br label %58

35:                                               ; preds = %25
  %36 = icmp eq i32 %26, 3
  br i1 %36, label %37, label %43

37:                                               ; preds = %35
  %38 = mul nsw i32 %7, %5
  %39 = sext i32 %38 to i64
  %40 = getelementptr inbounds i8, ptr %1, i64 %39
  %41 = zext nneg i32 %6 to i64
  %42 = getelementptr inbounds nuw i8, ptr %40, i64 %41
  tail call void @_ZN4ncnn3Mat11from_pixelsEPKhiiiiPNS_9AllocatorE(ptr dead_on_unwind writable sret(%"class.ncnn::Mat") align 8 %0, ptr noundef %42, i32 noundef %2, i32 noundef %8, i32 noundef %9, i32 noundef %5, ptr noundef %10)
  br label %58

43:                                               ; preds = %35
  %44 = and i32 %2, 65534
  %or.cond9 = icmp eq i32 %44, 4
  br i1 %or.cond9, label %45, label %52

45:                                               ; preds = %43
  %46 = mul nsw i32 %7, %5
  %47 = sext i32 %46 to i64
  %48 = getelementptr inbounds i8, ptr %1, i64 %47
  %49 = shl nsw i32 %6, 2
  %50 = zext nneg i32 %49 to i64
  %51 = getelementptr inbounds nuw i8, ptr %48, i64 %50
  tail call void @_ZN4ncnn3Mat11from_pixelsEPKhiiiiPNS_9AllocatorE(ptr dead_on_unwind writable sret(%"class.ncnn::Mat") align 8 %0, ptr noundef %51, i32 noundef %2, i32 noundef %8, i32 noundef %9, i32 noundef %5, ptr noundef %10)
  br label %58

52:                                               ; preds = %43
  %53 = load ptr, ptr @stderr, align 8, !tbaa !14
  %54 = tail call i32 (ptr, ptr, ...) @fprintf(ptr noundef %53, ptr noundef nonnull @.str, i32 noundef %2) #13
  %55 = load ptr, ptr @stderr, align 8, !tbaa !14
  %fputc = tail call i32 @fputc(i32 10, ptr %55)
  %56 = getelementptr inbounds nuw i8, ptr %0, i64 32
  %57 = getelementptr inbounds nuw i8, ptr %0, i64 64
  store i64 0, ptr %57, align 8, !tbaa !17
  tail call void @llvm.memset.p0.i64(ptr noundef nonnull align 8 dereferenceable(28) %0, i8 0, i64 28, i1 false)
  tail call void @llvm.memset.p0.i64(ptr noundef nonnull align 8 dereferenceable(28) %56, i8 0, i64 28, i1 false)
  br label %58

58:                                               ; preds = %28, %37, %45, %52, %19
  ret void
}